; Function Attrs: mustprogress uwtable
define hidden void @_ZN18OpenImageIO_v2_6_03pvt18explain_labeltableB5cxx11ERKNS_10ParamValueEPKv(ptr noalias sret(%"class.std::__cxx11::basic_string") align 8 %agg.result, ptr noundef nonnull align 8 dereferenceable(39) %p, ptr nocapture noundef readonly %extradata) #5 personality ptr @__gxx_personality_v0 {
entry:
  %ref.tmp21 = alloca %"class.std::allocator.13", align 1
  %m_type.i = getelementptr inbounds i8, ptr %p, i64 8
  %0 = load i8, ptr %m_type.i, align 8, !noalias !43
  %1 = and i8 %0, -4
  %switch = icmp eq i8 %1, 4
  br i1 %switch, label %if.then, label %if.else

if.then:                                          ; preds = %entry
  %call = tail call noundef i32 @_ZNK18OpenImageIO_v2_6_010ParamValue7get_intEi(ptr noundef nonnull align 8 dereferenceable(39) %p, i32 noundef 0)
  br label %if.end15

if.else:                                          ; preds = %entry
  %arraylen5.i.i = getelementptr inbounds i8, ptr %p, i64 12
  %aggregate3.i.i = getelementptr inbounds i8, ptr %p, i64 9
  %2 = load i8, ptr %aggregate3.i.i, align 1, !noalias !44
  %3 = load i32, ptr %arraylen5.i.i, align 4, !noalias !44
  %cmp.i = icmp eq i8 %0, 13
  %cmp2.i = icmp eq i8 %2, 1
  %or.cond.i = select i1 %cmp.i, i1 %cmp2.i, i1 false
  %cmp.i.not.i = icmp eq i32 %3, 0
  %4 = select i1 %or.cond.i, i1 %cmp.i.not.i, i1 false
  br i1 %4, label %if.then11, label %if.else14

if.then11:                                        ; preds = %if.else
  %m_nonlocal.i = getelementptr inbounds i8, ptr %p, i64 38
  %5 = load i8, ptr %m_nonlocal.i, align 2
  %6 = and i8 %5, 1
  %tobool.not.i = icmp eq i8 %6, 0
  %m_data.i = getelementptr inbounds i8, ptr %p, i64 16
  %7 = load ptr, ptr %m_data.i, align 8
  %cond.i = select i1 %tobool.not.i, ptr %m_data.i, ptr %7
  %8 = load ptr, ptr %cond.i, align 8
  %9 = load i8, ptr %8, align 1
  %conv13 = sext i8 %9 to i32
  br label %if.end15

if.else14:                                        ; preds = %if.else
  tail call void @_ZNSt7__cxx1112basic_stringIcSt11char_traitsIcESaIcEEC1Ev(ptr noundef nonnull align 8 dereferenceable(32) %agg.result) #28
  br label %return

if.end15:                                         ; preds = %if.then11, %if.then
  %val.0 = phi i32 [ %call, %if.then ], [ %conv13, %if.then11 ]
  %label25 = getelementptr inbounds i8, ptr %extradata, i64 8
  %10 = load ptr, ptr %label25, align 8
  %tobool.not26 = icmp eq ptr %10, null
  br i1 %tobool.not26, label %for.end, label %for.body.preheader

for.body.preheader:                               ; preds = %if.end15
  %11 = load i32, ptr %extradata, align 8
  %cmp1631 = icmp eq i32 %val.0, %11
  br i1 %cmp1631, label %if.then19, label %for.cond

for.cond:                                         ; preds = %for.body.preheader, %for.body
  %lt.02732 = phi ptr [ %incdec.ptr, %for.body ], [ %extradata, %for.body.preheader ]
  %label = getelementptr inbounds i8, ptr %lt.02732, i64 24
  %12 = load ptr, ptr %label, align 8
  %tobool.not = icmp eq ptr %12, null
  br i1 %tobool.not, label %for.end, label %for.body, !llvm.loop !47

for.body:                                         ; preds = %for.cond
  %incdec.ptr = getelementptr inbounds i8, ptr %lt.02732, i64 16
  %13 = load i32, ptr %incdec.ptr, align 8
  %cmp16 = icmp eq i32 %val.0, %13
  br i1 %cmp16, label %if.then19, label %for.cond, !llvm.loop !47

if.then19:                                        ; preds = %for.body, %for.body.preheader
  %.lcssa = phi ptr [ %10, %for.body.preheader ], [ %12, %for.body ]
  call void @_ZNSaIcEC1Ev(ptr noundef nonnull align 1 dereferenceable(1) %ref.tmp21) #28
  %call.i23 = invoke noundef ptr @_ZNSt7__cxx1112basic_stringIcSt11char_traitsIcESaIcEE13_M_local_dataEv(ptr noundef nonnull align 8 dereferenceable(32) %agg.result)
          to label %call.i.noexc unwind label %lpad

call.i.noexc:                                     ; preds = %if.then19
  invoke void @_ZNSt7__cxx1112basic_stringIcSt11char_traitsIcESaIcEE12_Alloc_hiderC1EPcRKS3_(ptr noundef nonnull align 8 dereferenceable(8) %agg.result, ptr noundef %call.i23, ptr noundef nonnull align 1 dereferenceable(1) %ref.tmp21)
          to label %if.end.i unwind label %lpad

lpad.i:                                           ; preds = %if.end.i
  %14 = landingpad { ptr, i32 }
          cleanup
  call void @_ZNSaIcED2Ev(ptr noundef nonnull align 1 dereferenceable(1) %agg.result) #28
  br label %lpad.body

if.end.i:                                         ; preds = %call.i.noexc
  %call.i.i = call noundef i64 @strlen(ptr noundef nonnull dereferenceable(1) %.lcssa) #28
  %add.ptr.i = getelementptr inbounds i8, ptr %.lcssa, i64 %call.i.i
  invoke void @_ZNSt7__cxx1112basic_stringIcSt11char_traitsIcESaIcEE12_M_constructIPKcEEvT_S8_St20forward_iterator_tag(ptr noundef nonnull align 8 dereferenceable(32) %agg.result, ptr noundef nonnull %.lcssa, ptr noundef nonnull %add.ptr.i)
          to label %invoke.cont unwind label %lpad.i

invoke.cont:                                      ; preds = %if.end.i
  call void @_ZNSaIcED1Ev(ptr noundef nonnull align 1 dereferenceable(1) %ref.tmp21) #28
  br label %return

lpad:                                             ; preds = %call.i.noexc, %if.then19
  %15 = landingpad { ptr, i32 }
          cleanup
  br label %lpad.body

lpad.body:                                        ; preds = %lpad.i, %lpad
  %eh.lpad-body = phi { ptr, i32 } [ %15, %lpad ], [ %14, %lpad.i ]
  call void @_ZNSaIcED1Ev(ptr noundef nonnull align 1 dereferenceable(1) %ref.tmp21) #28
  resume { ptr, i32 } %eh.lpad-body

for.end:                                          ; preds = %for.cond, %if.end15
  tail call void @_ZNSt7__cxx1112basic_stringIcSt11char_traitsIcESaIcEEC1Ev(ptr noundef nonnull align 8 dereferenceable(32) %agg.result) #28
  br label %return

return:                                           ; preds = %for.end, %invoke.cont, %if.else14
  ret void
}